target datalayout = "e-m:e-p270:32:32-p271:32:32-p272:64:64-i64:64-i128:128-f80:128-n8:16:32:64-S128"
target triple = "x86_64-unknown-linux-gnu"

; Function Attrs: mustprogress nounwind uwtable
define hidden noundef zeroext i1 @_ZN7datalog11read_uint64ERPKcRm(ptr noundef nonnull align 8 dereferenceable(8) %s, ptr noundef nonnull align 8 dereferenceable(8) %res) #5 {
entry:
  %retval = alloca i1, align 1
  %s.addr = alloca ptr, align 8
  %res.addr = alloca ptr, align 8
  %digit = alloca i8, align 1
  store ptr %s, ptr %s.addr, align 8
  store ptr %res, ptr %res.addr, align 8
  %0 = load ptr, ptr %s.addr, align 8
  %1 = load ptr, ptr %0, align 8
  %2 = load i8, ptr %1, align 1
  %conv = sext i8 %2 to i32
  %cmp = icmp slt i32 %conv, 48
  br i1 %cmp, label %if.then, label %lor.lhs.false

lor.lhs.false:                                    ; preds = %entry
  %3 = load ptr, ptr %s.addr, align 8
  %4 = load ptr, ptr %3, align 8
  %5 = load i8, ptr %4, align 1
  %conv1 = sext i8 %5 to i32
  %cmp2 = icmp sgt i32 %conv1, 57
  br i1 %cmp2, label %if.then, label %if.end

if.then:                                          ; preds = %lor.lhs.false, %entry
  store i1 false, ptr %retval, align 1
  br label %return

if.end:                                           ; preds = %lor.lhs.false
  %6 = load ptr, ptr %s.addr, align 8
  %7 = load ptr, ptr %6, align 8
  %8 = load i8, ptr %7, align 1
  %conv3 = sext i8 %8 to i32
  %sub = sub nsw i32 %conv3, 48
  %conv4 = sext i32 %sub to i64
  %9 = load ptr, ptr %res.addr, align 8
  store i64 %conv4, ptr %9, align 8
  %10 = load ptr, ptr %s.addr, align 8
  %11 = load ptr, ptr %10, align 8
  %incdec.ptr = getelementptr inbounds i8, ptr %11, i32 1
  store ptr %incdec.ptr, ptr %10, align 8
  br label %while.cond

while.cond:                                       ; preds = %if.end31, %if.end
  %12 = load ptr, ptr %s.addr, align 8
  %13 = load ptr, ptr %12, align 8
  %14 = load i8, ptr %13, align 1
  %conv5 = sext i8 %14 to i32
  %cmp6 = icmp sge i32 %conv5, 48
  br i1 %cmp6, label %land.rhs, label %land.end

land.rhs:                                         ; preds = %while.cond
  %15 = load ptr, ptr %s.addr, align 8
  %16 = load ptr, ptr %15, align 8
  %17 = load i8, ptr %16, align 1
  %conv7 = sext i8 %17 to i32
  %cmp8 = icmp sle i32 %conv7, 57
  br label %land.end

land.end:                                         ; preds = %land.rhs, %while.cond
  %18 = phi i1 [ false, %while.cond ], [ %cmp8, %land.rhs ]
  br i1 %18, label %while.body, label %while.end

while.body:                                       ; preds = %land.end
  %19 = load ptr, ptr %res.addr, align 8
  %20 = load i64, ptr %19, align 8
  %cmp9 = icmp ugt i64 %20, 1844674407370955160
  br i1 %cmp9, label %if.then10, label %if.else

if.then10:                                        ; preds = %while.body
  %21 = load ptr, ptr %res.addr, align 8
  %22 = load i64, ptr %21, align 8
  %cmp11 = icmp ugt i64 %22, 1844674407370955161
  br i1 %cmp11, label %if.then12, label %if.end13

if.then12:                                        ; preds = %if.then10
  store i1 false, ptr %retval, align 1
  br label %return

if.end13:                                         ; preds = %if.then10
  %23 = load ptr, ptr %res.addr, align 8
  %24 = load i64, ptr %23, align 8
  %mul = mul i64 %24, 10
  store i64 %mul, ptr %23, align 8
  %25 = load ptr, ptr %s.addr, align 8
  %26 = load ptr, ptr %25, align 8
  %27 = load i8, ptr %26, align 1
  %conv14 = sext i8 %27 to i32
  %sub15 = sub nsw i32 %conv14, 48
  %conv16 = trunc i32 %sub15 to i8
  store i8 %conv16, ptr %digit, align 1
  %28 = load ptr, ptr %res.addr, align 8
  %29 = load i64, ptr %28, align 8
  %sub17 = sub i64 -1, %29
  %conv18 = trunc i64 %sub17 to i32
  %30 = load i8, ptr %digit, align 1
  %conv19 = sext i8 %30 to i32
  %sub20 = sub nsw i32 %conv18, %conv19
  %cmp21 = icmp slt i32 %sub20, 0
  br i1 %cmp21, label %if.then22, label %if.end23

if.then22:                                        ; preds = %if.end13
  store i1 false, ptr %retval, align 1
  br label %return

if.end23:                                         ; preds = %if.end13
  %31 = load i8, ptr %digit, align 1
  %conv24 = sext i8 %31 to i64
  %32 = load ptr, ptr %res.addr, align 8
  %33 = load i64, ptr %32, align 8
  %add = add i64 %33, %conv24
  store i64 %add, ptr %32, align 8
  br label %if.end31

if.else:                                          ; preds = %while.body
  %34 = load ptr, ptr %res.addr, align 8
  %35 = load i64, ptr %34, align 8
  %mul25 = mul i64 %35, 10
  store i64 %mul25, ptr %34, align 8
  %36 = load ptr, ptr %s.addr, align 8
  %37 = load ptr, ptr %36, align 8
  %38 = load i8, ptr %37, align 1
  %conv26 = sext i8 %38 to i32
  %sub27 = sub nsw i32 %conv26, 48
  %conv28 = sext i32 %sub27 to i64
  %39 = load ptr, ptr %res.addr, align 8
  %40 = load i64, ptr %39, align 8
  %add29 = add i64 %40, %conv28
  store i64 %add29, ptr %39, align 8
  %41 = load ptr, ptr %s.addr, align 8
  %42 = load ptr, ptr %41, align 8
  %incdec.ptr30 = getelementptr inbounds i8, ptr %42, i32 1
  store ptr %incdec.ptr30, ptr %41, align 8
  br label %if.end31

if.end31:                                         ; preds = %if.else, %if.end23
  br label %while.cond, !llvm.loop !27

while.end:                                        ; preds = %land.end
  store i1 true, ptr %retval, align 1
  br label %return

return:                                           ; preds = %while.end, %if.then22, %if.then12, %if.then
  %43 = load i1, ptr %retval, align 1
  ret i1 %43
}