; Function Attrs: mustprogress nofree norecurse nosync nounwind memory(read, argmem: readwrite, inaccessiblemem: none) uwtable
define hidden noundef zeroext i1 @_ZN7datalog11read_uint64ERPKcRm(ptr nocapture noundef nonnull align 8 dereferenceable(8) %s, ptr nocapture noundef nonnull align 8 dereferenceable(8) %res) local_unnamed_addr #14 {
entry:
  %0 = load ptr, ptr %s, align 8
  %1 = load i8, ptr %0, align 1
  %2 = add i8 %1, -58
  %or.cond = icmp ult i8 %2, -10
  br i1 %or.cond, label %return, label %if.end

if.end:                                           ; preds = %entry
  %narrow = add nsw i8 %1, -48
  %sub = zext nneg i8 %narrow to i64
  store i64 %sub, ptr %res, align 8
  %3 = load ptr, ptr %s, align 8
  %incdec.ptr = getelementptr inbounds i8, ptr %3, i64 1
  store ptr %incdec.ptr, ptr %s, align 8
  %4 = load i8, ptr %incdec.ptr, align 1
  %5 = add i8 %4, -48
  %or.cond1718 = icmp ult i8 %5, 10
  br i1 %or.cond1718, label %while.body, label %return

while.body:                                       ; preds = %if.end, %if.end31
  %6 = load i64, ptr %res, align 8
  %cmp9 = icmp ugt i64 %6, 1844674407370955160
  br i1 %cmp9, label %if.then10, label %if.else

if.then10:                                        ; preds = %while.body
  %cmp11.not = icmp eq i64 %6, 1844674407370955161
  br i1 %cmp11.not, label %if.end13, label %return

if.end13:                                         ; preds = %if.then10
  store i64 -6, ptr %res, align 8
  %7 = load ptr, ptr %s, align 8
  %8 = load i8, ptr %7, align 1
  %sub15 = add i8 %8, -48
  %cmp21 = icmp sgt i8 %sub15, 5
  br i1 %cmp21, label %return, label %if.end23

if.end23:                                         ; preds = %if.end13
  %conv24 = sext i8 %sub15 to i64
  %add = add nsw i64 %conv24, -6
  store i64 %add, ptr %res, align 8
  %.pre = load ptr, ptr %s, align 8
  br label %if.end31

if.else:                                          ; preds = %while.body
  %mul25 = mul nuw i64 %6, 10
  store i64 %mul25, ptr %res, align 8
  %9 = load ptr, ptr %s, align 8
  %10 = load i8, ptr %9, align 1
  %conv26 = sext i8 %10 to i64
  %sub27 = add i64 %mul25, -48
  %add29 = add i64 %sub27, %conv26
  store i64 %add29, ptr %res, align 8
  %11 = load ptr, ptr %s, align 8
  %incdec.ptr30 = getelementptr inbounds i8, ptr %11, i64 1
  store ptr %incdec.ptr30, ptr %s, align 8
  br label %if.end31

if.end31:                                         ; preds = %if.else, %if.end23
  %12 = phi ptr [ %incdec.ptr30, %if.else ], [ %.pre, %if.end23 ]
  %13 = load i8, ptr %12, align 1
  %14 = add i8 %13, -48
  %or.cond17 = icmp ult i8 %14, 10
  br i1 %or.cond17, label %while.body, label %return, !llvm.loop !38

return:                                           ; preds = %if.then10, %if.end13, %if.end31, %if.end, %entry
  %retval.0 = phi i1 [ false, %entry ], [ true, %if.end ], [ false, %if.then10 ], [ false, %if.end13 ], [ true, %if.end31 ]
  ret i1 %retval.0
}